target datalayout = "e-m:e-p270:32:32-p271:32:32-p272:64:64-i64:64-i128:128-f80:128-n8:16:32:64-S128"
target triple = "x86_64-pc-linux-gnu"

%"class.std::basic_string_view" = type { i64, ptr }
%"class.grpc_core::chttp2::FlowControlAction" = type { i8, i8, i8, i8, i8, i32, i32, i32 }
%"class.grpc_core::chttp2::TransportFlowControl" = type { ptr, i64, i8, %"class.grpc_core::BdpEstimator", i64, i64, i64, i64, i64, i32, i32 }
%"class.grpc_core::BdpEstimator" = type { i64, i64, %struct.gpr_timespec, %"class.grpc_core::Duration", i32, i32, double, %"class.std::basic_string_view" }
%struct.gpr_timespec = type { i64, i32, i32 }
%"class.grpc_core::Duration" = type { i64 }
%"class.grpc_core::chttp2::StreamFlowControl" = type { ptr, i64, i64, i64, %"class.std::optional" }
%"class.std::optional" = type { %"struct.std::_Optional_base" }
%"struct.std::_Optional_base" = type { %"struct.std::_Optional_payload" }
%"struct.std::_Optional_payload" = type { %"struct.std::_Optional_payload_base.base", [7 x i8] }
%"struct.std::_Optional_payload_base.base" = type <{ %"union.std::_Optional_payload_base<long>::_Storage", i8 }>
%"union.std::_Optional_payload_base<long>::_Storage" = type { i64 }
%class.anon.6 = type { ptr }
%"struct.std::_Optional_payload_base" = type <{ %"union.std::_Optional_payload_base<long>::_Storage", i8, [7 x i8] }>

@_ZN9grpc_core6chttp2L15kMaxWindowDeltaE = internal constant i64 1048576, align 8

; Function Attrs: mustprogress nounwind uwtable
define linkonce_odr noundef nonnull align 8 dereferenceable(8) ptr @_ZNKSt22_Optional_payload_baseIlE6_M_getEv(ptr noundef nonnull align 8 dereferenceable(9) %0) #8 comdat align 2 {
  %2 = alloca ptr, align 8
  store ptr %0, ptr %2, align 8, !tbaa !172
  %3 = load ptr, ptr %2, align 8
  %4 = getelementptr inbounds nuw %"struct.std::_Optional_payload_base", ptr %3, i32 0, i32 0
  ret ptr %4
}

; Function Attrs: mustprogress nounwind uwtable
define linkonce_odr noundef nonnull align 8 dereferenceable(8) ptr @_ZNKSt19_Optional_base_implIlSt14_Optional_baseIlLb1ELb1EEE6_M_getEv(ptr noundef nonnull align 1 dereferenceable(1) %0) #8 comdat align 2 {
  %2 = alloca ptr, align 8
  store ptr %0, ptr %2, align 8, !tbaa !212
  %3 = load ptr, ptr %2, align 8
  br label %4

4:                                                ; preds = %1
  br label %5

5:                                                ; preds = %4
  br label %6

6:                                                ; preds = %5
  %7 = getelementptr inbounds nuw %"struct.std::_Optional_base", ptr %3, i32 0, i32 0
  %8 = call noundef nonnull align 8 dereferenceable(8) ptr @_ZNKSt22_Optional_payload_baseIlE6_M_getEv(ptr noundef nonnull align 8 dereferenceable(9) %7) #3
  ret ptr %8
}

; Function Attrs: mustprogress nounwind uwtable
define linkonce_odr noundef zeroext i1 @_ZNKSt19_Optional_base_implIlSt14_Optional_baseIlLb1ELb1EEE13_M_is_engagedEv(ptr noundef nonnull align 1 dereferenceable(1) %0) #8 comdat align 2 {
  %2 = alloca ptr, align 8
  store ptr %0, ptr %2, align 8, !tbaa !212
  %3 = load ptr, ptr %2, align 8
  %4 = getelementptr inbounds nuw %"struct.std::_Optional_base", ptr %3, i32 0, i32 0
  %5 = getelementptr inbounds nuw %"struct.std::_Optional_payload_base", ptr %4, i32 0, i32 1
  %6 = load i8, ptr %5, align 8, !tbaa !174, !range !59, !noundef !60
  %7 = trunc i8 %6 to i1
  ret i1 %7
}

; Function Attrs: inlinehint mustprogress nounwind uwtable
define linkonce_odr noundef nonnull align 8 dereferenceable(8) ptr @_ZSt3minIlERKT_S2_S2_(ptr noundef nonnull align 8 dereferenceable(8) %0, ptr noundef nonnull align 8 dereferenceable(8) %1) #10 comdat {
  %3 = alloca ptr, align 8
  %4 = alloca ptr, align 8
  %5 = alloca ptr, align 8
  store ptr %0, ptr %4, align 8, !tbaa !99
  store ptr %1, ptr %5, align 8, !tbaa !99
  %6 = load ptr, ptr %5, align 8, !tbaa !99
  %7 = load i64, ptr %6, align 8, !tbaa !34
  %8 = load ptr, ptr %4, align 8, !tbaa !99
  %9 = load i64, ptr %8, align 8, !tbaa !34
  %10 = icmp slt i64 %7, %9
  br i1 %10, label %11, label %13

11:                                               ; preds = %2
  %12 = load ptr, ptr %5, align 8, !tbaa !99
  store ptr %12, ptr %3, align 8
  br label %15

13:                                               ; preds = %2
  %14 = load ptr, ptr %4, align 8, !tbaa !99
  store ptr %14, ptr %3, align 8
  br label %15

15:                                               ; preds = %13, %11
  %16 = load ptr, ptr %3, align 8
  ret ptr %16
}

; Function Attrs: mustprogress nounwind uwtable
define linkonce_odr noundef nonnull align 8 dereferenceable(8) ptr @_ZNKRSt8optionalIlEdeEv(ptr noundef nonnull align 8 dereferenceable(16) %0) #8 comdat align 2 {
  %2 = alloca ptr, align 8
  store ptr %0, ptr %2, align 8, !tbaa !80
  %3 = load ptr, ptr %2, align 8
  %4 = call noundef nonnull align 8 dereferenceable(8) ptr @_ZNKSt19_Optional_base_implIlSt14_Optional_baseIlLb1ELb1EEE6_M_getEv(ptr noundef nonnull align 1 dereferenceable(1) %3) #3
  ret ptr %4
}

; Function Attrs: mustprogress nounwind uwtable
define linkonce_odr noundef zeroext i1 @_ZNKSt8optionalIlE9has_valueEv(ptr noundef nonnull align 8 dereferenceable(16) %0) #8 comdat align 2 {
  %2 = alloca ptr, align 8
  store ptr %0, ptr %2, align 8, !tbaa !80
  %3 = load ptr, ptr %2, align 8
  %4 = call noundef zeroext i1 @_ZNKSt19_Optional_base_implIlSt14_Optional_baseIlLb1ELb1EEE13_M_is_engagedEv(ptr noundef nonnull align 1 dereferenceable(1) %3) #3
  ret i1 %4
}

; Function Attrs: mustprogress nounwind uwtable
define linkonce_odr noundef i64 @_ZN9grpc_core5ClampIlEET_S1_S1_S1_(i64 noundef %0, i64 noundef %1, i64 noundef %2) #8 comdat {
  %4 = alloca i64, align 8
  %5 = alloca i64, align 8
  %6 = alloca i64, align 8
  %7 = alloca i64, align 8
  store i64 %0, ptr %5, align 8, !tbaa !34
  store i64 %1, ptr %6, align 8, !tbaa !34
  store i64 %2, ptr %7, align 8, !tbaa !34
  %8 = load i64, ptr %5, align 8, !tbaa !34
  %9 = load i64, ptr %6, align 8, !tbaa !34
  %10 = icmp slt i64 %8, %9
  br i1 %10, label %11, label %13

11:                                               ; preds = %3
  %12 = load i64, ptr %6, align 8, !tbaa !34
  store i64 %12, ptr %4, align 8
  br label %21

13:                                               ; preds = %3
  %14 = load i64, ptr %7, align 8, !tbaa !34
  %15 = load i64, ptr %5, align 8, !tbaa !34
  %16 = icmp slt i64 %14, %15
  br i1 %16, label %17, label %19

17:                                               ; preds = %13
  %18 = load i64, ptr %7, align 8, !tbaa !34
  store i64 %18, ptr %4, align 8
  br label %21

19:                                               ; preds = %13
  %20 = load i64, ptr %5, align 8, !tbaa !34
  store i64 %20, ptr %4, align 8
  br label %21

21:                                               ; preds = %19, %17, %11
  %22 = load i64, ptr %4, align 8
  ret i64 %22
}

; Function Attrs: inlinehint mustprogress nounwind uwtable
define internal noundef i64 @"_ZZNK9grpc_core6chttp217StreamFlowControl19DesiredAnnounceSizeEvENK3$_0clEv"(ptr noundef nonnull align 8 dereferenceable(8) %0) #10 align 2 {
  %2 = alloca i64, align 8
  %3 = alloca ptr, align 8
  store ptr %0, ptr %3, align 8, !tbaa !93
  %4 = load ptr, ptr %3, align 8
  %5 = getelementptr inbounds nuw %class.anon.6, ptr %4, i32 0, i32 0
  %6 = load ptr, ptr %5, align 8, !tbaa !142
  %7 = getelementptr inbounds nuw %"class.grpc_core::chttp2::StreamFlowControl", ptr %6, i32 0, i32 1
  %8 = load i64, ptr %7, align 8, !tbaa !77
  %9 = icmp eq i64 %8, 0
  br i1 %9, label %10, label %29

10:                                               ; preds = %1
  %11 = getelementptr inbounds nuw %"class.grpc_core::chttp2::StreamFlowControl", ptr %6, i32 0, i32 4
  %12 = call noundef zeroext i1 @_ZNKSt8optionalIlE9has_valueEv(ptr noundef nonnull align 8 dereferenceable(16) %11) #3
  br i1 %12, label %13, label %26

13:                                               ; preds = %10
  %14 = getelementptr inbounds nuw %"class.grpc_core::chttp2::StreamFlowControl", ptr %6, i32 0, i32 3
  %15 = load i64, ptr %14, align 8, !tbaa !79
  %16 = getelementptr inbounds nuw %"class.grpc_core::chttp2::StreamFlowControl", ptr %6, i32 0, i32 4
  %17 = call noundef nonnull align 8 dereferenceable(8) ptr @_ZNKRSt8optionalIlEdeEv(ptr noundef nonnull align 8 dereferenceable(16) %16) #3
  %18 = load i64, ptr %17, align 8, !tbaa !34
  %19 = sub nsw i64 0, %18
  %20 = icmp slt i64 %15, %19
  br i1 %20, label %21, label %26

21:                                               ; preds = %13
  %22 = getelementptr inbounds nuw %"class.grpc_core::chttp2::StreamFlowControl", ptr %6, i32 0, i32 4
  %23 = call noundef nonnull align 8 dereferenceable(8) ptr @_ZNKRSt8optionalIlEdeEv(ptr noundef nonnull align 8 dereferenceable(16) %22) #3
  %24 = load i64, ptr %23, align 8, !tbaa !34
  %25 = sub nsw i64 0, %24
  store i64 %25, ptr %2, align 8
  br label %33

26:                                               ; preds = %13, %10
  %27 = getelementptr inbounds nuw %"class.grpc_core::chttp2::StreamFlowControl", ptr %6, i32 0, i32 3
  %28 = load i64, ptr %27, align 8, !tbaa !79
  store i64 %28, ptr %2, align 8
  br label %33

29:                                               ; preds = %1
  %30 = getelementptr inbounds nuw %"class.grpc_core::chttp2::StreamFlowControl", ptr %6, i32 0, i32 1
  %31 = call noundef nonnull align 8 dereferenceable(8) ptr @_ZSt3minIlERKT_S2_S2_(ptr noundef nonnull align 8 dereferenceable(8) %30, ptr noundef nonnull align 8 dereferenceable(8) @_ZN9grpc_core6chttp2L15kMaxWindowDeltaE)
  %32 = load i64, ptr %31, align 8, !tbaa !34
  store i64 %32, ptr %2, align 8
  br label %33

33:                                               ; preds = %29, %26, %21
  %34 = load i64, ptr %2, align 8
  ret i64 %34
}

; Function Attrs: mustprogress nounwind uwtable
define linkonce_odr noundef nonnull align 4 dereferenceable(20) ptr @_ZN9grpc_core6chttp217FlowControlAction22set_send_stream_updateENS1_7UrgencyE(ptr noundef nonnull align 4 dereferenceable(20) %0, i8 noundef zeroext %1) #8 comdat align 2 {
  %3 = alloca ptr, align 8
  %4 = alloca i8, align 1
  store ptr %0, ptr %3, align 8, !tbaa !14
  store i8 %1, ptr %4, align 1, !tbaa !3
  %5 = load ptr, ptr %3, align 8
  %6 = load i8, ptr %4, align 1, !tbaa !3
  %7 = getelementptr inbounds nuw %"class.grpc_core::chttp2::FlowControlAction", ptr %5, i32 0, i32 0
  store i8 %6, ptr %7, align 4, !tbaa !19
  ret ptr %5
}

; Function Attrs: mustprogress nounwind uwtable
define linkonce_odr noundef i32 @_ZNK9grpc_core6chttp220TransportFlowControl16sent_init_windowEv(ptr noundef nonnull align 8 dereferenceable(144) %0) #8 comdat align 2 {
  %2 = alloca ptr, align 8
  store ptr %0, ptr %2, align 8, !tbaa !44
  %3 = load ptr, ptr %2, align 8
  %4 = getelementptr inbounds nuw %"class.grpc_core::chttp2::TransportFlowControl", ptr %3, i32 0, i32 10
  %5 = load i32, ptr %4, align 4, !tbaa !68
  ret i32 %5
}

; Function Attrs: inlinehint mustprogress nounwind uwtable
define linkonce_odr noundef nonnull align 8 dereferenceable(8) ptr @_ZSt3maxIlERKT_S2_S2_(ptr noundef nonnull align 8 dereferenceable(8) %0, ptr noundef nonnull align 8 dereferenceable(8) %1) #10 comdat {
  %3 = alloca ptr, align 8
  %4 = alloca ptr, align 8
  %5 = alloca ptr, align 8
  store ptr %0, ptr %4, align 8, !tbaa !99
  store ptr %1, ptr %5, align 8, !tbaa !99
  %6 = load ptr, ptr %4, align 8, !tbaa !99
  %7 = load i64, ptr %6, align 8, !tbaa !34
  %8 = load ptr, ptr %5, align 8, !tbaa !99
  %9 = load i64, ptr %8, align 8, !tbaa !34
  %10 = icmp slt i64 %7, %9
  br i1 %10, label %11, label %13

11:                                               ; preds = %2
  %12 = load ptr, ptr %5, align 8, !tbaa !99
  store ptr %12, ptr %3, align 8
  br label %15

13:                                               ; preds = %2
  %14 = load ptr, ptr %4, align 8, !tbaa !99
  store ptr %14, ptr %3, align 8
  br label %15

15:                                               ; preds = %13, %11
  %16 = load ptr, ptr %3, align 8
  ret ptr %16
}

; Function Attrs: mustprogress nounwind uwtable
define linkonce_odr noundef i32 @_ZNK9grpc_core6chttp220TransportFlowControl18queued_init_windowEv(ptr noundef nonnull align 8 dereferenceable(144) %0) #8 comdat align 2 {
  %2 = alloca ptr, align 8
  store ptr %0, ptr %2, align 8, !tbaa !44
  %3 = load ptr, ptr %2, align 8
  %4 = getelementptr inbounds nuw %"class.grpc_core::chttp2::TransportFlowControl", ptr %3, i32 0, i32 5
  %5 = load i64, ptr %4, align 8, !tbaa !63
  %6 = trunc i64 %5 to i32
  ret i32 %6
}

; Function Attrs: mustprogress uwtable
define noundef i32 @_ZNK9grpc_core6chttp217StreamFlowControl19DesiredAnnounceSizeEv(ptr noundef nonnull align 8 dereferenceable(48) %0) #4 align 2 {
  %2 = alloca ptr, align 8
  %3 = alloca i64, align 8
  %4 = alloca %class.anon.6, align 8
  store ptr %0, ptr %2, align 8, !tbaa !69
  %5 = load ptr, ptr %2, align 8
  call void @llvm.lifetime.start.p0(i64 8, ptr %3) #3
  call void @llvm.lifetime.start.p0(i64 8, ptr %4) #3
  %6 = getelementptr inbounds nuw %class.anon.6, ptr %4, i32 0, i32 0
  store ptr %5, ptr %6, align 8, !tbaa !142
  %7 = call noundef i64 @"_ZZNK9grpc_core6chttp217StreamFlowControl19DesiredAnnounceSizeEvENK3$_0clEv"(ptr noundef nonnull align 8 dereferenceable(8) %4)
  call void @llvm.lifetime.end.p0(i64 8, ptr %4) #3
  store i64 %7, ptr %3, align 8, !tbaa !34
  %8 = load i64, ptr %3, align 8, !tbaa !34
  %9 = getelementptr inbounds nuw %"class.grpc_core::chttp2::StreamFlowControl", ptr %5, i32 0, i32 3
  %10 = load i64, ptr %9, align 8, !tbaa !79
  %11 = sub nsw i64 %8, %10
  %12 = call noundef i64 @_ZN9grpc_core5ClampIlEET_S1_S1_S1_(i64 noundef %11, i64 noundef 0, i64 noundef 2147483647)
  %13 = trunc i64 %12 to i32
  call void @llvm.lifetime.end.p0(i64 8, ptr %3) #3
  ret i32 %13
}

; Function Attrs: mustprogress uwtable
define void @_ZN9grpc_core6chttp217StreamFlowControl12UpdateActionENS0_17FlowControlActionE(ptr dead_on_unwind noalias writable sret(%"class.grpc_core::chttp2::FlowControlAction") align 4 %0, ptr noundef nonnull align 8 dereferenceable(48) %1, ptr noundef byval(%"class.grpc_core::chttp2::FlowControlAction") align 8 %2) #4 align 2 {
  %4 = alloca ptr, align 8
  %5 = alloca i64, align 8
  %6 = alloca i8, align 1
  %7 = alloca i64, align 8
  %8 = alloca i64, align 8
  %9 = alloca i64, align 8
  store ptr %1, ptr %4, align 8, !tbaa !69
  %10 = load ptr, ptr %4, align 8
  call void @llvm.lifetime.start.p0(i64 8, ptr %5) #3
  %11 = call noundef i32 @_ZNK9grpc_core6chttp217StreamFlowControl19DesiredAnnounceSizeEv(ptr noundef nonnull align 8 dereferenceable(48) %10)
  %12 = zext i32 %11 to i64
  store i64 %12, ptr %5, align 8, !tbaa !34
  %13 = load i64, ptr %5, align 8, !tbaa !34
  %14 = icmp sgt i64 %13, 0
  br i1 %14, label %15, label %46

15:                                               ; preds = %3
  call void @llvm.lifetime.start.p0(i64 1, ptr %6) #3
  store i8 2, ptr %6, align 1, !tbaa !3
  call void @llvm.lifetime.start.p0(i64 8, ptr %7) #3
  call void @llvm.lifetime.start.p0(i64 8, ptr %8) #3
  %16 = getelementptr inbounds nuw %"class.grpc_core::chttp2::StreamFlowControl", ptr %10, i32 0, i32 0
  %17 = load ptr, ptr %16, align 8, !tbaa !71
  %18 = call noundef i32 @_ZNK9grpc_core6chttp220TransportFlowControl18queued_init_windowEv(ptr noundef nonnull align 8 dereferenceable(144) %17)
  %19 = zext i32 %18 to i64
  %20 = sdiv i64 %19, 2
  store i64 %20, ptr %8, align 8, !tbaa !34
  call void @llvm.lifetime.start.p0(i64 8, ptr %9) #3
  store i64 8192, ptr %9, align 8, !tbaa !34
  %21 = call noundef nonnull align 8 dereferenceable(8) ptr @_ZSt3maxIlERKT_S2_S2_(ptr noundef nonnull align 8 dereferenceable(8) %8, ptr noundef nonnull align 8 dereferenceable(8) %9)
  %22 = load i64, ptr %21, align 8, !tbaa !34
  call void @llvm.lifetime.end.p0(i64 8, ptr %9) #3
  call void @llvm.lifetime.end.p0(i64 8, ptr %8) #3
  store i64 %22, ptr %7, align 8, !tbaa !34
  %23 = load i64, ptr %5, align 8, !tbaa !34
  %24 = load i64, ptr %7, align 8, !tbaa !34
  %25 = icmp sgt i64 %23, %24
  br i1 %25, label %26, label %27

26:                                               ; preds = %15
  store i8 1, ptr %6, align 1, !tbaa !3
  br label %27

27:                                               ; preds = %26, %15
  %28 = getelementptr inbounds nuw %"class.grpc_core::chttp2::StreamFlowControl", ptr %10, i32 0, i32 1
  %29 = load i64, ptr %28, align 8, !tbaa !77
  %30 = icmp sgt i64 %29, 0
  br i1 %30, label %31, label %43

31:                                               ; preds = %27
  %32 = getelementptr inbounds nuw %"class.grpc_core::chttp2::StreamFlowControl", ptr %10, i32 0, i32 3
  %33 = load i64, ptr %32, align 8, !tbaa !79
  %34 = getelementptr inbounds nuw %"class.grpc_core::chttp2::StreamFlowControl", ptr %10, i32 0, i32 0
  %35 = load ptr, ptr %34, align 8, !tbaa !71
  %36 = call noundef i32 @_ZNK9grpc_core6chttp220TransportFlowControl16sent_init_windowEv(ptr noundef nonnull align 8 dereferenceable(144) %35)
  %37 = zext i32 %36 to i64
  %38 = sub nsw i64 0, %37
  %39 = sdiv i64 %38, 2
  %40 = icmp sle i64 %33, %39
  br i1 %40, label %41, label %42

41:                                               ; preds = %31
  store i8 1, ptr %6, align 1, !tbaa !3
  br label %42

42:                                               ; preds = %41, %31
  br label %43

43:                                               ; preds = %42, %27
  %44 = load i8, ptr %6, align 1, !tbaa !3
  %45 = call noundef nonnull align 4 dereferenceable(20) ptr @_ZN9grpc_core6chttp217FlowControlAction22set_send_stream_updateENS1_7UrgencyE(ptr noundef nonnull align 4 dereferenceable(20) %2, i8 noundef zeroext %44)
  call void @llvm.lifetime.end.p0(i64 8, ptr %7) #3
  call void @llvm.lifetime.end.p0(i64 1, ptr %6) #3
  br label %46

46:                                               ; preds = %43, %3
  call void @llvm.memcpy.p0.p0.i64(ptr align 4 %0, ptr align 8 %2, i64 20, i1 false), !tbaa.struct !111
  call void @llvm.lifetime.end.p0(i64 8, ptr %5) #3
  ret void
}