; Function Attrs: mustprogress nofree norecurse nosync nounwind willreturn memory(read, argmem: readwrite, inaccessiblemem: none) uwtable
define void @_ZN9grpc_core6chttp217StreamFlowControl12UpdateActionENS0_17FlowControlActionE(ptr dead_on_unwind noalias writable writeonly sret(%"class.grpc_core::chttp2::FlowControlAction") align 4 captures(none) initializes((0, 20)) %0, ptr noundef nonnull readonly align 8 captures(none) dereferenceable(48) %1, ptr noundef byval(%"class.grpc_core::chttp2::FlowControlAction") align 8 captures(none) %2) local_unnamed_addr #15 align 2 {
  %4 = getelementptr inbounds nuw i8, ptr %1, i64 8
  %5 = load i64, ptr %4, align 8, !tbaa !132
  %6 = icmp eq i64 %5, 0
  br i1 %6, label %7, label %17

7:                                                ; preds = %3
  %8 = getelementptr inbounds nuw i8, ptr %1, i64 40
  %9 = load i8, ptr %8, align 8, !tbaa !75, !range !114, !noundef !112
  %10 = trunc nuw i8 %9 to i1
  br i1 %10, label %11, label %._crit_edge.i.i

._crit_edge.i.i:                                  ; preds = %7
  %.phi.trans.insert.i.i = getelementptr inbounds nuw i8, ptr %1, i64 24
  %.pre.i.i = load i64, ptr %.phi.trans.insert.i.i, align 8, !tbaa !133
  br label %_ZNK9grpc_core6chttp217StreamFlowControl19DesiredAnnounceSizeEv.exit

11:                                               ; preds = %7
  %12 = getelementptr inbounds nuw i8, ptr %1, i64 32
  %13 = getelementptr inbounds nuw i8, ptr %1, i64 24
  %14 = load i64, ptr %13, align 8, !tbaa !133
  %15 = load i64, ptr %12, align 8, !tbaa !67
  %16 = sub nsw i64 0, %15
  %spec.select.i.i = tail call i64 @llvm.smax.i64(i64 %14, i64 %16)
  br label %_ZNK9grpc_core6chttp217StreamFlowControl19DesiredAnnounceSizeEv.exit

17:                                               ; preds = %3
  %18 = tail call i64 @llvm.smin.i64(i64 %5, i64 1048576)
  %.phi.trans.insert.i = getelementptr inbounds nuw i8, ptr %1, i64 24
  %.pre.i = load i64, ptr %.phi.trans.insert.i, align 8, !tbaa !133
  br label %_ZNK9grpc_core6chttp217StreamFlowControl19DesiredAnnounceSizeEv.exit

_ZNK9grpc_core6chttp217StreamFlowControl19DesiredAnnounceSizeEv.exit: ; preds = %._crit_edge.i.i, %11, %17
  %19 = phi i64 [ %.pre.i, %17 ], [ %.pre.i.i, %._crit_edge.i.i ], [ %14, %11 ]
  %.0.i.i = phi i64 [ %18, %17 ], [ %.pre.i.i, %._crit_edge.i.i ], [ %spec.select.i.i, %11 ]
  %20 = sub nsw i64 %.0.i.i, %19
  %.not = icmp slt i64 %20, 1
  br i1 %.not, label %37, label %21

21:                                               ; preds = %_ZNK9grpc_core6chttp217StreamFlowControl19DesiredAnnounceSizeEv.exit
  %22 = tail call i64 @llvm.umin.i64(i64 %20, i64 2147483647)
  %23 = load ptr, ptr %1, align 8, !tbaa !68
  %24 = getelementptr inbounds nuw i8, ptr %23, i64 104
  %25 = load i64, ptr %24, align 8, !tbaa !61
  %26 = lshr i64 %25, 1
  %27 = and i64 %26, 2147483647
  %.sroa.speculated = tail call i64 @llvm.umax.i64(i64 %27, i64 8192)
  %28 = icmp samesign ult i64 %.sroa.speculated, %22
  %spec.select = select i1 %28, i8 1, i8 2
  %29 = icmp sgt i64 %5, 0
  br i1 %29, label %30, label %36

30:                                               ; preds = %21
  %31 = getelementptr inbounds nuw i8, ptr %23, i64 140
  %32 = load i32, ptr %31, align 4, !tbaa !66
  %33 = lshr i32 %32, 1
  %34 = zext nneg i32 %33 to i64
  %35 = sub nsw i64 0, %34
  %.not5 = icmp sgt i64 %19, %35
  %spec.select6 = select i1 %.not5, i8 %spec.select, i8 1
  br label %36

36:                                               ; preds = %30, %21
  %.1 = phi i8 [ %spec.select, %21 ], [ %spec.select6, %30 ]
  store i8 %.1, ptr %2, align 8, !tbaa !22
  br label %37

37:                                               ; preds = %36, %_ZNK9grpc_core6chttp217StreamFlowControl19DesiredAnnounceSizeEv.exit
  call void @llvm.memcpy.p0.p0.i64(ptr noundef nonnull align 4 dereferenceable(20) %0, ptr noundef nonnull align 8 dereferenceable(20) %2, i64 20, i1 false), !tbaa.struct !89
  ret void
}